target datalayout = "e-m:e-p270:32:32-p271:32:32-p272:64:64-i64:64-i128:128-f80:128-n8:16:32:64-S128"
target triple = "x86_64-pc-linux-gnu"

@hf_mikey = internal global [71 x i32] zeroinitializer, align 16
@ett_mikey_hdr_id = internal global i32 0, align 4
@.str.307 = private unnamed_addr constant [43 x i8] c"SRTP ID: Policy: %d, SSRC: 0x%x, ROC: 0x%x\00", align 1

; Function Attrs: null_pointer_is_valid sspstrong uwtable
define internal i32 @dissect_payload_cs_id_srtp(ptr noundef %0, ptr noundef %1, ptr noundef %2, ptr noundef %3) #0 {
  %5 = alloca ptr, align 8
  %6 = alloca ptr, align 8
  %7 = alloca ptr, align 8
  %8 = alloca ptr, align 8
  %9 = alloca ptr, align 8
  %10 = alloca ptr, align 8
  %11 = alloca i8, align 1
  %12 = alloca i32, align 4
  %13 = alloca i32, align 4
  store ptr %0, ptr %5, align 8
  store ptr %1, ptr %6, align 8
  store ptr %2, ptr %7, align 8
  store ptr %3, ptr %8, align 8
  %14 = load ptr, ptr %8, align 8
  %15 = icmp ne ptr %14, null
  br i1 %15, label %16, label %46

16:                                               ; preds = %4
  call void @llvm.lifetime.start.p0(i64 8, ptr %9) #5
  call void @llvm.lifetime.start.p0(i64 8, ptr %10) #5
  call void @llvm.lifetime.start.p0(i64 1, ptr %11) #5
  call void @llvm.lifetime.start.p0(i64 4, ptr %12) #5
  call void @llvm.lifetime.start.p0(i64 4, ptr %13) #5
  %17 = load ptr, ptr %6, align 8
  %18 = call zeroext i8 @tvb_get_uint8(ptr noundef %17, i32 noundef 0)
  store i8 %18, ptr %11, align 1
  %19 = load ptr, ptr %6, align 8
  %20 = call i32 @tvb_get_ntohl(ptr noundef %19, i32 noundef 1)
  store i32 %20, ptr %12, align 4
  %21 = load ptr, ptr %6, align 8
  %22 = call i32 @tvb_get_ntohl(ptr noundef %21, i32 noundef 5)
  store i32 %22, ptr %13, align 4
  %23 = load ptr, ptr %8, align 8
  %24 = load i32, ptr getelementptr ([71 x i32], ptr @hf_mikey, i64 0, i64 7), align 4
  %25 = load ptr, ptr %6, align 8
  %26 = load i8, ptr %11, align 1
  %27 = zext i8 %26 to i32
  %28 = load i32, ptr %12, align 4
  %29 = load i32, ptr %13, align 4
  %30 = call ptr (ptr, i32, ptr, i32, i32, ptr, ...) @proto_tree_add_none_format(ptr noundef %23, i32 noundef %24, ptr noundef %25, i32 noundef 0, i32 noundef 9, ptr noundef @.str.307, i32 noundef %27, i32 noundef %28, i32 noundef %29)
  store ptr %30, ptr %9, align 8
  %31 = load ptr, ptr %9, align 8
  %32 = load i32, ptr @ett_mikey_hdr_id, align 4
  %33 = call ptr @proto_item_add_subtree(ptr noundef %31, i32 noundef %32)
  store ptr %33, ptr %10, align 8
  %34 = load ptr, ptr %10, align 8
  %35 = load i32, ptr getelementptr ([71 x i32], ptr @hf_mikey, i64 0, i64 8), align 16
  %36 = load ptr, ptr %6, align 8
  %37 = call ptr @proto_tree_add_item(ptr noundef %34, i32 noundef %35, ptr noundef %36, i32 noundef 0, i32 noundef 1, i32 noundef 0)
  %38 = load ptr, ptr %10, align 8
  %39 = load i32, ptr getelementptr ([71 x i32], ptr @hf_mikey, i64 0, i64 9), align 4
  %40 = load ptr, ptr %6, align 8
  %41 = call ptr @proto_tree_add_item(ptr noundef %38, i32 noundef %39, ptr noundef %40, i32 noundef 1, i32 noundef 4, i32 noundef 0)
  %42 = load ptr, ptr %10, align 8
  %43 = load i32, ptr getelementptr ([71 x i32], ptr @hf_mikey, i64 0, i64 10), align 8
  %44 = load ptr, ptr %6, align 8
  %45 = call ptr @proto_tree_add_item(ptr noundef %42, i32 noundef %43, ptr noundef %44, i32 noundef 5, i32 noundef 4, i32 noundef 0)
  call void @llvm.lifetime.end.p0(i64 4, ptr %13) #5
  call void @llvm.lifetime.end.p0(i64 4, ptr %12) #5
  call void @llvm.lifetime.end.p0(i64 1, ptr %11) #5
  call void @llvm.lifetime.end.p0(i64 8, ptr %10) #5
  call void @llvm.lifetime.end.p0(i64 8, ptr %9) #5
  br label %46

46:                                               ; preds = %16, %4
  ret i32 9
}