; Function Attrs: null_pointer_is_valid sspstrong uwtable
define internal fastcc noundef i32 @dissect_payload_cs_id_srtp(ptr readnone captures(none) %0, ptr noundef %1, ptr readnone captures(none) %2, ptr noundef %3) unnamed_addr #0 {
  %.not = icmp eq ptr %3, null
  br i1 %.not, label %20, label %5

5:                                                ; preds = %4
  %6 = tail call zeroext i8 @tvb_get_uint8(ptr noundef %1, i32 noundef 0)
  %7 = tail call i32 @tvb_get_ntohl(ptr noundef %1, i32 noundef 1)
  %8 = tail call i32 @tvb_get_ntohl(ptr noundef %1, i32 noundef 5)
  %9 = load i32, ptr getelementptr inbounds nuw (i8, ptr @hf_mikey, i64 28), align 4
  %10 = zext i8 %6 to i32
  %11 = tail call ptr (ptr, i32, ptr, i32, i32, ptr, ...) @proto_tree_add_none_format(ptr noundef nonnull %3, i32 noundef %9, ptr noundef %1, i32 noundef 0, i32 noundef 9, ptr noundef nonnull @.str.307, i32 noundef %10, i32 noundef %7, i32 noundef %8)
  %12 = load i32, ptr @ett_mikey_hdr_id, align 4
  %13 = tail call ptr @proto_item_add_subtree(ptr noundef %11, i32 noundef %12)
  %14 = load i32, ptr getelementptr inbounds nuw (i8, ptr @hf_mikey, i64 32), align 16
  %15 = tail call ptr @proto_tree_add_item(ptr noundef %13, i32 noundef %14, ptr noundef %1, i32 noundef 0, i32 noundef 1, i32 noundef 0)
  %16 = load i32, ptr getelementptr inbounds nuw (i8, ptr @hf_mikey, i64 36), align 4
  %17 = tail call ptr @proto_tree_add_item(ptr noundef %13, i32 noundef %16, ptr noundef %1, i32 noundef 1, i32 noundef 4, i32 noundef 0)
  %18 = load i32, ptr getelementptr inbounds nuw (i8, ptr @hf_mikey, i64 40), align 8
  %19 = tail call ptr @proto_tree_add_item(ptr noundef %13, i32 noundef %18, ptr noundef %1, i32 noundef 5, i32 noundef 4, i32 noundef 0)
  br label %20

20:                                               ; preds = %5, %4
  ret i32 9
}